; Function Attrs: mustprogress nofree norecurse nosync nounwind willreturn memory(argmem: read) uwtable
define noundef ptr @_ZNK6icu_7511Formattable9getObjectEv(ptr nocapture noundef nonnull readonly align 8 dereferenceable(112) %this) local_unnamed_addr #9 align 2 {
entry:
  %fType = getelementptr inbounds i8, ptr %this, i64 40
  %0 = load i32, ptr %fType, align 8
  %cmp = icmp eq i32 %0, 6
  %fValue = getelementptr inbounds i8, ptr %this, i64 8
  %1 = load ptr, ptr %fValue, align 8
  %cond = select i1 %cmp, ptr %1, ptr null
  ret ptr %cond
}